target datalayout = "e-m:e-p270:32:32-p271:32:32-p272:64:64-i64:64-i128:128-f80:128-n8:16:32:64-S128"
target triple = "x86_64-pc-linux-gnu"

%struct.FunctionCallInfoBaseData = type { ptr, ptr, ptr, i32, i8, i16, [0 x %struct.NullableDatum] }
%struct.NullableDatum = type { i64, i8 }
%struct.BrinOpcInfo = type { i16, i8, ptr, [0 x ptr] }
%struct.BrinValues = type { i16, i8, i8, ptr, i64, ptr, ptr }
%struct.BrinDesc = type { ptr, ptr, ptr, ptr, i32, [0 x ptr] }
%struct.CompactAttribute = type { i32, i16, i8, i8, i8, i8, i8, i8, i8 }
%struct.TupleDescData = type { i32, i32, i32, i32, ptr, [0 x %struct.CompactAttribute] }
%struct.InclusionOpaque = type { [4 x %struct.FmgrInfo], [4 x i8], i32, [30 x %struct.FmgrInfo] }
%struct.FmgrInfo = type { ptr, i32, i16, i8, i8, i8, ptr, ptr, ptr }

; Function Attrs: nounwind uwtable
define internal ptr @inclusion_get_procinfo(ptr noundef %0, i16 noundef zeroext %1, i16 noundef zeroext %2) #0 {
  %4 = alloca ptr, align 8
  %5 = alloca ptr, align 8
  %6 = alloca i16, align 2
  %7 = alloca i16, align 2
  %8 = alloca ptr, align 8
  %9 = alloca i16, align 2
  %10 = alloca i32, align 4
  store ptr %0, ptr %5, align 8
  store i16 %1, ptr %6, align 2
  store i16 %2, ptr %7, align 2
  call void @llvm.lifetime.start.p0(i64 8, ptr %8) #5
  call void @llvm.lifetime.start.p0(i64 2, ptr %9) #5
  %11 = load i16, ptr %7, align 2
  %12 = zext i16 %11 to i32
  %13 = sub i32 %12, 11
  %14 = trunc i32 %13 to i16
  store i16 %14, ptr %9, align 2
  %15 = load ptr, ptr %5, align 8
  %16 = getelementptr inbounds nuw %struct.BrinDesc, ptr %15, i32 0, i32 5
  %17 = load i16, ptr %6, align 2
  %18 = zext i16 %17 to i32
  %19 = sub i32 %18, 1
  %20 = sext i32 %19 to i64
  %21 = getelementptr inbounds [0 x ptr], ptr %16, i64 0, i64 %20
  %22 = load ptr, ptr %21, align 8
  %23 = getelementptr inbounds nuw %struct.BrinOpcInfo, ptr %22, i32 0, i32 2
  %24 = load ptr, ptr %23, align 8
  store ptr %24, ptr %8, align 8
  %25 = load ptr, ptr %8, align 8
  %26 = getelementptr inbounds nuw %struct.InclusionOpaque, ptr %25, i32 0, i32 1
  %27 = load i16, ptr %9, align 2
  %28 = zext i16 %27 to i64
  %29 = getelementptr inbounds nuw [4 x i8], ptr %26, i64 0, i64 %28
  %30 = load i8, ptr %29, align 1, !range !4, !noundef !5
  %31 = trunc i8 %30 to i1
  br i1 %31, label %32, label %33

32:                                               ; preds = %3
  store ptr null, ptr %4, align 8
  store i32 1, ptr %10, align 4
  br label %78

33:                                               ; preds = %3
  %34 = load ptr, ptr %8, align 8
  %35 = getelementptr inbounds nuw %struct.InclusionOpaque, ptr %34, i32 0, i32 0
  %36 = load i16, ptr %9, align 2
  %37 = zext i16 %36 to i64
  %38 = getelementptr inbounds nuw [4 x %struct.FmgrInfo], ptr %35, i64 0, i64 %37
  %39 = getelementptr inbounds nuw %struct.FmgrInfo, ptr %38, i32 0, i32 1
  %40 = load i32, ptr %39, align 8
  %41 = icmp eq i32 %40, 0
  br i1 %41, label %42, label %72

42:                                               ; preds = %33
  %43 = load ptr, ptr %5, align 8
  %44 = getelementptr inbounds nuw %struct.BrinDesc, ptr %43, i32 0, i32 1
  %45 = load ptr, ptr %44, align 8
  %46 = load i16, ptr %6, align 2
  %47 = load i16, ptr %7, align 2
  %48 = call i32 @index_getprocid(ptr noundef %45, i16 noundef signext %46, i16 noundef zeroext %47)
  %49 = icmp ne i32 %48, 0
  br i1 %49, label %50, label %65

50:                                               ; preds = %42
  %51 = load ptr, ptr %8, align 8
  %52 = getelementptr inbounds nuw %struct.InclusionOpaque, ptr %51, i32 0, i32 0
  %53 = load i16, ptr %9, align 2
  %54 = zext i16 %53 to i64
  %55 = getelementptr inbounds nuw [4 x %struct.FmgrInfo], ptr %52, i64 0, i64 %54
  %56 = load ptr, ptr %5, align 8
  %57 = getelementptr inbounds nuw %struct.BrinDesc, ptr %56, i32 0, i32 1
  %58 = load ptr, ptr %57, align 8
  %59 = load i16, ptr %6, align 2
  %60 = load i16, ptr %7, align 2
  %61 = call ptr @index_getprocinfo(ptr noundef %58, i16 noundef signext %59, i16 noundef zeroext %60)
  %62 = load ptr, ptr %5, align 8
  %63 = getelementptr inbounds nuw %struct.BrinDesc, ptr %62, i32 0, i32 0
  %64 = load ptr, ptr %63, align 8
  call void @fmgr_info_copy(ptr noundef %55, ptr noundef %61, ptr noundef %64)
  br label %71

65:                                               ; preds = %42
  %66 = load ptr, ptr %8, align 8
  %67 = getelementptr inbounds nuw %struct.InclusionOpaque, ptr %66, i32 0, i32 1
  %68 = load i16, ptr %9, align 2
  %69 = zext i16 %68 to i64
  %70 = getelementptr inbounds nuw [4 x i8], ptr %67, i64 0, i64 %69
  store i8 1, ptr %70, align 1
  store ptr null, ptr %4, align 8
  store i32 1, ptr %10, align 4
  br label %78

71:                                               ; preds = %50
  br label %72

72:                                               ; preds = %71, %33
  %73 = load ptr, ptr %8, align 8
  %74 = getelementptr inbounds nuw %struct.InclusionOpaque, ptr %73, i32 0, i32 0
  %75 = load i16, ptr %9, align 2
  %76 = zext i16 %75 to i64
  %77 = getelementptr inbounds nuw [4 x %struct.FmgrInfo], ptr %74, i64 0, i64 %76
  store ptr %77, ptr %4, align 8
  store i32 1, ptr %10, align 4
  br label %78

78:                                               ; preds = %72, %65, %32
  call void @llvm.lifetime.end.p0(i64 2, ptr %9) #5
  call void @llvm.lifetime.end.p0(i64 8, ptr %8) #5
  %79 = load ptr, ptr %4, align 8
  ret ptr %79
}

; Function Attrs: inlinehint nounwind uwtable
define internal i64 @BoolGetDatum(i1 noundef zeroext %0) #2 {
  %2 = alloca i8, align 1
  %3 = zext i1 %0 to i8
  store i8 %3, ptr %2, align 1
  %4 = load i8, ptr %2, align 1, !range !4, !noundef !5
  %5 = trunc i8 %4 to i1
  %6 = select i1 %5, i32 1, i32 0
  %7 = sext i32 %6 to i64
  ret i64 %7
}

; Function Attrs: inlinehint nounwind uwtable
define internal zeroext i1 @DatumGetBool(i64 noundef %0) #2 {
  %2 = alloca i64, align 8
  store i64 %0, ptr %2, align 8
  %3 = load i64, ptr %2, align 8
  %4 = icmp ne i64 %3, 0
  ret i1 %4
}

; Function Attrs: inlinehint nounwind uwtable
define internal ptr @TupleDescCompactAttr(ptr noundef %0, i32 noundef %1) #2 {
  %3 = alloca ptr, align 8
  %4 = alloca i32, align 4
  %5 = alloca ptr, align 8
  store ptr %0, ptr %3, align 8
  store i32 %1, ptr %4, align 4
  call void @llvm.lifetime.start.p0(i64 8, ptr %5) #5
  %6 = load ptr, ptr %3, align 8
  %7 = getelementptr inbounds nuw %struct.TupleDescData, ptr %6, i32 0, i32 5
  %8 = load i32, ptr %4, align 4
  %9 = sext i32 %8 to i64
  %10 = getelementptr inbounds [0 x %struct.CompactAttribute], ptr %7, i64 0, i64 %9
  store ptr %10, ptr %5, align 8
  %11 = load ptr, ptr %5, align 8
  call void @llvm.lifetime.end.p0(i64 8, ptr %5) #5
  ret ptr %11
}

; Function Attrs: inlinehint nounwind uwtable
define internal ptr @DatumGetPointer(i64 noundef %0) #2 {
  %2 = alloca i64, align 8
  store i64 %0, ptr %2, align 8
  %3 = load i64, ptr %2, align 8
  %4 = inttoptr i64 %3 to ptr
  ret ptr %4
}

; Function Attrs: nounwind uwtable
define dso_local i64 @brin_inclusion_union(ptr noundef %0) #0 {
  %2 = alloca i64, align 8
  %3 = alloca ptr, align 8
  %4 = alloca ptr, align 8
  %5 = alloca ptr, align 8
  %6 = alloca ptr, align 8
  %7 = alloca i32, align 4
  %8 = alloca i16, align 2
  %9 = alloca ptr, align 8
  %10 = alloca ptr, align 8
  %11 = alloca i64, align 8
  %12 = alloca i32, align 4
  store ptr %0, ptr %3, align 8
  call void @llvm.lifetime.start.p0(i64 8, ptr %4) #5
  %13 = load ptr, ptr %3, align 8
  %14 = getelementptr inbounds nuw %struct.FunctionCallInfoBaseData, ptr %13, i32 0, i32 6
  %15 = getelementptr inbounds [0 x %struct.NullableDatum], ptr %14, i64 0, i64 0
  %16 = getelementptr inbounds nuw %struct.NullableDatum, ptr %15, i32 0, i32 0
  %17 = load i64, ptr %16, align 8
  %18 = call ptr @DatumGetPointer(i64 noundef %17)
  store ptr %18, ptr %4, align 8
  call void @llvm.lifetime.start.p0(i64 8, ptr %5) #5
  %19 = load ptr, ptr %3, align 8
  %20 = getelementptr inbounds nuw %struct.FunctionCallInfoBaseData, ptr %19, i32 0, i32 6
  %21 = getelementptr inbounds [0 x %struct.NullableDatum], ptr %20, i64 0, i64 1
  %22 = getelementptr inbounds nuw %struct.NullableDatum, ptr %21, i32 0, i32 0
  %23 = load i64, ptr %22, align 8
  %24 = call ptr @DatumGetPointer(i64 noundef %23)
  store ptr %24, ptr %5, align 8
  call void @llvm.lifetime.start.p0(i64 8, ptr %6) #5
  %25 = load ptr, ptr %3, align 8
  %26 = getelementptr inbounds nuw %struct.FunctionCallInfoBaseData, ptr %25, i32 0, i32 6
  %27 = getelementptr inbounds [0 x %struct.NullableDatum], ptr %26, i64 0, i64 2
  %28 = getelementptr inbounds nuw %struct.NullableDatum, ptr %27, i32 0, i32 0
  %29 = load i64, ptr %28, align 8
  %30 = call ptr @DatumGetPointer(i64 noundef %29)
  store ptr %30, ptr %6, align 8
  call void @llvm.lifetime.start.p0(i64 4, ptr %7) #5
  %31 = load ptr, ptr %3, align 8
  %32 = getelementptr inbounds nuw %struct.FunctionCallInfoBaseData, ptr %31, i32 0, i32 3
  %33 = load i32, ptr %32, align 8
  store i32 %33, ptr %7, align 4
  call void @llvm.lifetime.start.p0(i64 2, ptr %8) #5
  call void @llvm.lifetime.start.p0(i64 8, ptr %9) #5
  call void @llvm.lifetime.start.p0(i64 8, ptr %10) #5
  call void @llvm.lifetime.start.p0(i64 8, ptr %11) #5
  %34 = load ptr, ptr %5, align 8
  %35 = getelementptr inbounds nuw %struct.BrinValues, ptr %34, i32 0, i32 0
  %36 = load i16, ptr %35, align 8
  store i16 %36, ptr %8, align 2
  %37 = load ptr, ptr %4, align 8
  %38 = getelementptr inbounds nuw %struct.BrinDesc, ptr %37, i32 0, i32 2
  %39 = load ptr, ptr %38, align 8
  %40 = load i16, ptr %8, align 2
  %41 = sext i16 %40 to i32
  %42 = sub i32 %41, 1
  %43 = call ptr @TupleDescCompactAttr(ptr noundef %39, i32 noundef %42)
  store ptr %43, ptr %9, align 8
  %44 = load ptr, ptr %5, align 8
  %45 = getelementptr inbounds nuw %struct.BrinValues, ptr %44, i32 0, i32 3
  %46 = load ptr, ptr %45, align 8
  %47 = getelementptr inbounds i64, ptr %46, i64 2
  %48 = load i64, ptr %47, align 8
  %49 = call zeroext i1 @DatumGetBool(i64 noundef %48)
  br i1 %49, label %63, label %50

50:                                               ; preds = %1
  %51 = load ptr, ptr %6, align 8
  %52 = getelementptr inbounds nuw %struct.BrinValues, ptr %51, i32 0, i32 3
  %53 = load ptr, ptr %52, align 8
  %54 = getelementptr inbounds i64, ptr %53, i64 2
  %55 = load i64, ptr %54, align 8
  %56 = call zeroext i1 @DatumGetBool(i64 noundef %55)
  br i1 %56, label %57, label %63

57:                                               ; preds = %50
  %58 = call i64 @BoolGetDatum(i1 noundef zeroext true)
  %59 = load ptr, ptr %5, align 8
  %60 = getelementptr inbounds nuw %struct.BrinValues, ptr %59, i32 0, i32 3
  %61 = load ptr, ptr %60, align 8
  %62 = getelementptr inbounds i64, ptr %61, i64 2
  store i64 %58, ptr %62, align 8
  br label %63

63:                                               ; preds = %57, %50, %1
  %64 = load ptr, ptr %5, align 8
  %65 = getelementptr inbounds nuw %struct.BrinValues, ptr %64, i32 0, i32 3
  %66 = load ptr, ptr %65, align 8
  %67 = getelementptr inbounds i64, ptr %66, i64 1
  %68 = load i64, ptr %67, align 8
  %69 = call zeroext i1 @DatumGetBool(i64 noundef %68)
  br i1 %69, label %70, label %71

70:                                               ; preds = %63
  store i64 0, ptr %2, align 8
  store i32 1, ptr %12, align 4
  br label %174

71:                                               ; preds = %63
  %72 = load ptr, ptr %6, align 8
  %73 = getelementptr inbounds nuw %struct.BrinValues, ptr %72, i32 0, i32 3
  %74 = load ptr, ptr %73, align 8
  %75 = getelementptr inbounds i64, ptr %74, i64 1
  %76 = load i64, ptr %75, align 8
  %77 = call zeroext i1 @DatumGetBool(i64 noundef %76)
  br i1 %77, label %78, label %84

78:                                               ; preds = %71
  %79 = call i64 @BoolGetDatum(i1 noundef zeroext true)
  %80 = load ptr, ptr %5, align 8
  %81 = getelementptr inbounds nuw %struct.BrinValues, ptr %80, i32 0, i32 3
  %82 = load ptr, ptr %81, align 8
  %83 = getelementptr inbounds i64, ptr %82, i64 1
  store i64 %79, ptr %83, align 8
  store i64 0, ptr %2, align 8
  store i32 1, ptr %12, align 4
  br label %174

84:                                               ; preds = %71
  %85 = load ptr, ptr %4, align 8
  %86 = load i16, ptr %8, align 2
  %87 = call ptr @inclusion_get_procinfo(ptr noundef %85, i16 noundef zeroext %86, i16 noundef zeroext 12)
  store ptr %87, ptr %10, align 8
  %88 = load ptr, ptr %10, align 8
  %89 = icmp ne ptr %88, null
  br i1 %89, label %90, label %111

90:                                               ; preds = %84
  %91 = load ptr, ptr %10, align 8
  %92 = load i32, ptr %7, align 4
  %93 = load ptr, ptr %5, align 8
  %94 = getelementptr inbounds nuw %struct.BrinValues, ptr %93, i32 0, i32 3
  %95 = load ptr, ptr %94, align 8
  %96 = getelementptr inbounds i64, ptr %95, i64 0
  %97 = load i64, ptr %96, align 8
  %98 = load ptr, ptr %6, align 8
  %99 = getelementptr inbounds nuw %struct.BrinValues, ptr %98, i32 0, i32 3
  %100 = load ptr, ptr %99, align 8
  %101 = getelementptr inbounds i64, ptr %100, i64 0
  %102 = load i64, ptr %101, align 8
  %103 = call i64 @FunctionCall2Coll(ptr noundef %91, i32 noundef %92, i64 noundef %97, i64 noundef %102)
  %104 = call zeroext i1 @DatumGetBool(i64 noundef %103)
  br i1 %104, label %111, label %105

105:                                              ; preds = %90
  %106 = call i64 @BoolGetDatum(i1 noundef zeroext true)
  %107 = load ptr, ptr %5, align 8
  %108 = getelementptr inbounds nuw %struct.BrinValues, ptr %107, i32 0, i32 3
  %109 = load ptr, ptr %108, align 8
  %110 = getelementptr inbounds i64, ptr %109, i64 1
  store i64 %106, ptr %110, align 8
  store i64 0, ptr %2, align 8
  store i32 1, ptr %12, align 4
  br label %174

111:                                              ; preds = %90, %84
  %112 = load ptr, ptr %4, align 8
  %113 = load i16, ptr %8, align 2
  %114 = call ptr @inclusion_get_procinfo(ptr noundef %112, i16 noundef zeroext %113, i16 noundef zeroext 11)
  store ptr %114, ptr %10, align 8
  %115 = load ptr, ptr %10, align 8
  %116 = load i32, ptr %7, align 4
  %117 = load ptr, ptr %5, align 8
  %118 = getelementptr inbounds nuw %struct.BrinValues, ptr %117, i32 0, i32 3
  %119 = load ptr, ptr %118, align 8
  %120 = getelementptr inbounds i64, ptr %119, i64 0
  %121 = load i64, ptr %120, align 8
  %122 = load ptr, ptr %6, align 8
  %123 = getelementptr inbounds nuw %struct.BrinValues, ptr %122, i32 0, i32 3
  %124 = load ptr, ptr %123, align 8
  %125 = getelementptr inbounds i64, ptr %124, i64 0
  %126 = load i64, ptr %125, align 8
  %127 = call i64 @FunctionCall2Coll(ptr noundef %115, i32 noundef %116, i64 noundef %121, i64 noundef %126)
  store i64 %127, ptr %11, align 8
  %128 = load ptr, ptr %9, align 8
  %129 = getelementptr inbounds nuw %struct.CompactAttribute, ptr %128, i32 0, i32 2
  %130 = load i8, ptr %129, align 2, !range !4, !noundef !5
  %131 = trunc i8 %130 to i1
  br i1 %131, label %168, label %132

132:                                              ; preds = %111
  %133 = load i64, ptr %11, align 8
  %134 = call ptr @DatumGetPointer(i64 noundef %133)
  %135 = load ptr, ptr %5, align 8
  %136 = getelementptr inbounds nuw %struct.BrinValues, ptr %135, i32 0, i32 3
  %137 = load ptr, ptr %136, align 8
  %138 = getelementptr inbounds i64, ptr %137, i64 0
  %139 = load i64, ptr %138, align 8
  %140 = call ptr @DatumGetPointer(i64 noundef %139)
  %141 = icmp ne ptr %134, %140
  br i1 %141, label %142, label %168

142:                                              ; preds = %132
  %143 = load ptr, ptr %5, align 8
  %144 = getelementptr inbounds nuw %struct.BrinValues, ptr %143, i32 0, i32 3
  %145 = load ptr, ptr %144, align 8
  %146 = getelementptr inbounds i64, ptr %145, i64 0
  %147 = load i64, ptr %146, align 8
  %148 = call ptr @DatumGetPointer(i64 noundef %147)
  call void @pfree(ptr noundef %148)
  %149 = load i64, ptr %11, align 8
  %150 = load ptr, ptr %6, align 8
  %151 = getelementptr inbounds nuw %struct.BrinValues, ptr %150, i32 0, i32 3
  %152 = load ptr, ptr %151, align 8
  %153 = getelementptr inbounds i64, ptr %152, i64 0
  %154 = load i64, ptr %153, align 8
  %155 = icmp eq i64 %149, %154
  br i1 %155, label %156, label %167

156:                                              ; preds = %142
  %157 = load i64, ptr %11, align 8
  %158 = load ptr, ptr %9, align 8
  %159 = getelementptr inbounds nuw %struct.CompactAttribute, ptr %158, i32 0, i32 2
  %160 = load i8, ptr %159, align 2, !range !4, !noundef !5
  %161 = trunc i8 %160 to i1
  %162 = load ptr, ptr %9, align 8
  %163 = getelementptr inbounds nuw %struct.CompactAttribute, ptr %162, i32 0, i32 1
  %164 = load i16, ptr %163, align 4
  %165 = sext i16 %164 to i32
  %166 = call i64 @datumCopy(i64 noundef %157, i1 noundef zeroext %161, i32 noundef %165)
  store i64 %166, ptr %11, align 8
  br label %167

167:                                              ; preds = %156, %142
  br label %168

168:                                              ; preds = %167, %132, %111
  %169 = load i64, ptr %11, align 8
  %170 = load ptr, ptr %5, align 8
  %171 = getelementptr inbounds nuw %struct.BrinValues, ptr %170, i32 0, i32 3
  %172 = load ptr, ptr %171, align 8
  %173 = getelementptr inbounds i64, ptr %172, i64 0
  store i64 %169, ptr %173, align 8
  store i64 0, ptr %2, align 8
  store i32 1, ptr %12, align 4
  br label %174

174:                                              ; preds = %168, %105, %78, %70
  call void @llvm.lifetime.end.p0(i64 8, ptr %11) #5
  call void @llvm.lifetime.end.p0(i64 8, ptr %10) #5
  call void @llvm.lifetime.end.p0(i64 8, ptr %9) #5
  call void @llvm.lifetime.end.p0(i64 2, ptr %8) #5
  call void @llvm.lifetime.end.p0(i64 4, ptr %7) #5
  call void @llvm.lifetime.end.p0(i64 8, ptr %6) #5
  call void @llvm.lifetime.end.p0(i64 8, ptr %5) #5
  call void @llvm.lifetime.end.p0(i64 8, ptr %4) #5
  %175 = load i64, ptr %2, align 8
  ret i64 %175
}