; Function Attrs: nounwind uwtable
define dso_local noundef i64 @brin_inclusion_union(ptr noundef readonly captures(none) %0) local_unnamed_addr #0 {
  %2 = getelementptr inbounds nuw i8, ptr %0, i64 32
  %3 = load i64, ptr %2, align 8
  %4 = inttoptr i64 %3 to ptr
  %5 = getelementptr inbounds nuw i8, ptr %0, i64 48
  %6 = load i64, ptr %5, align 8
  %7 = inttoptr i64 %6 to ptr
  %8 = getelementptr inbounds nuw i8, ptr %0, i64 64
  %9 = load i64, ptr %8, align 8
  %10 = inttoptr i64 %9 to ptr
  %11 = getelementptr inbounds nuw i8, ptr %0, i64 24
  %12 = load i32, ptr %11, align 8
  %13 = load i16, ptr %7, align 8
  %14 = getelementptr inbounds nuw i8, ptr %4, i64 16
  %15 = load ptr, ptr %14, align 8
  %16 = sext i16 %13 to i64
  %17 = add nsw i64 %16, -1
  %18 = getelementptr inbounds nuw i8, ptr %15, i64 24
  %19 = getelementptr inbounds [0 x %struct.CompactAttribute], ptr %18, i64 0, i64 %17
  %20 = getelementptr inbounds nuw i8, ptr %7, i64 8
  %21 = load ptr, ptr %20, align 8
  %22 = getelementptr inbounds nuw i8, ptr %21, i64 16
  %23 = load i64, ptr %22, align 8
  %.not = icmp eq i64 %23, 0
  br i1 %.not, label %24, label %30

24:                                               ; preds = %1
  %25 = getelementptr inbounds nuw i8, ptr %10, i64 8
  %26 = load ptr, ptr %25, align 8
  %27 = getelementptr inbounds nuw i8, ptr %26, i64 16
  %28 = load i64, ptr %27, align 8
  %.not47 = icmp eq i64 %28, 0
  br i1 %.not47, label %30, label %29

29:                                               ; preds = %24
  store i64 1, ptr %22, align 8
  %.pre = load ptr, ptr %20, align 8
  br label %30

30:                                               ; preds = %29, %24, %1
  %31 = phi ptr [ %.pre, %29 ], [ %21, %24 ], [ %21, %1 ]
  %32 = getelementptr inbounds nuw i8, ptr %31, i64 8
  %33 = load i64, ptr %32, align 8
  %.not48 = icmp eq i64 %33, 0
  br i1 %.not48, label %34, label %117

34:                                               ; preds = %30
  %35 = getelementptr inbounds nuw i8, ptr %10, i64 8
  %36 = load ptr, ptr %35, align 8
  %37 = getelementptr inbounds nuw i8, ptr %36, i64 8
  %38 = load i64, ptr %37, align 8
  %.not49 = icmp eq i64 %38, 0
  br i1 %.not49, label %40, label %39

39:                                               ; preds = %34
  store i64 1, ptr %32, align 8
  br label %117

40:                                               ; preds = %34
  %41 = getelementptr inbounds nuw i8, ptr %4, i64 40
  %42 = zext i16 %13 to i64
  %43 = add nsw i64 %42, -1
  %44 = getelementptr inbounds [0 x ptr], ptr %41, i64 0, i64 %43
  %45 = load ptr, ptr %44, align 8
  %46 = getelementptr inbounds nuw i8, ptr %45, i64 8
  %47 = load ptr, ptr %46, align 8
  %48 = getelementptr inbounds nuw i8, ptr %47, i64 193
  %49 = load i8, ptr %48, align 1, !range !4, !noundef !5
  %50 = trunc nuw i8 %49 to i1
  br i1 %50, label %inclusion_get_procinfo.exit.thread, label %51

51:                                               ; preds = %40
  %52 = getelementptr inbounds nuw i8, ptr %47, i64 48
  %53 = getelementptr inbounds nuw i8, ptr %47, i64 56
  %54 = load i32, ptr %53, align 8
  %55 = icmp eq i32 %54, 0
  br i1 %55, label %56, label %inclusion_get_procinfo.exit

56:                                               ; preds = %51
  %57 = getelementptr inbounds nuw i8, ptr %4, i64 8
  %58 = load ptr, ptr %57, align 8
  %59 = tail call i32 @index_getprocid(ptr noundef %58, i16 noundef signext %13, i16 noundef zeroext 12) #4
  %.not.i = icmp eq i32 %59, 0
  br i1 %.not.i, label %64, label %60

60:                                               ; preds = %56
  %61 = load ptr, ptr %57, align 8
  %62 = tail call ptr @index_getprocinfo(ptr noundef %61, i16 noundef signext %13, i16 noundef zeroext 12) #4
  %63 = load ptr, ptr %4, align 8
  tail call void @fmgr_info_copy(ptr noundef nonnull %52, ptr noundef %62, ptr noundef %63) #4
  %.pre51 = load ptr, ptr %20, align 8
  %.pre52 = load ptr, ptr %35, align 8
  br label %inclusion_get_procinfo.exit

64:                                               ; preds = %56
  store i8 1, ptr %48, align 1
  br label %inclusion_get_procinfo.exit.thread

inclusion_get_procinfo.exit:                      ; preds = %60, %51
  %65 = phi ptr [ %.pre52, %60 ], [ %36, %51 ]
  %66 = phi ptr [ %.pre51, %60 ], [ %31, %51 ]
  %67 = load i64, ptr %66, align 8
  %68 = load i64, ptr %65, align 8
  %69 = tail call i64 @FunctionCall2Coll(ptr noundef nonnull %52, i32 noundef %12, i64 noundef %67, i64 noundef %68) #4
  %.not50 = icmp eq i64 %69, 0
  br i1 %.not50, label %70, label %inclusion_get_procinfo.exit.thread

70:                                               ; preds = %inclusion_get_procinfo.exit
  %71 = load ptr, ptr %20, align 8
  %72 = getelementptr inbounds nuw i8, ptr %71, i64 8
  store i64 1, ptr %72, align 8
  br label %117

inclusion_get_procinfo.exit.thread:               ; preds = %40, %64, %inclusion_get_procinfo.exit
  %73 = load ptr, ptr %44, align 8
  %74 = getelementptr inbounds nuw i8, ptr %73, i64 8
  %75 = load ptr, ptr %74, align 8
  %76 = getelementptr inbounds nuw i8, ptr %75, i64 192
  %77 = load i8, ptr %76, align 1, !range !4, !noundef !5
  %78 = trunc nuw i8 %77 to i1
  br i1 %78, label %inclusion_get_procinfo.exit44, label %79

79:                                               ; preds = %inclusion_get_procinfo.exit.thread
  %80 = getelementptr inbounds nuw i8, ptr %75, i64 8
  %81 = load i32, ptr %80, align 8
  %82 = icmp eq i32 %81, 0
  br i1 %82, label %83, label %inclusion_get_procinfo.exit44

83:                                               ; preds = %79
  %84 = getelementptr inbounds nuw i8, ptr %4, i64 8
  %85 = load ptr, ptr %84, align 8
  %86 = tail call i32 @index_getprocid(ptr noundef %85, i16 noundef signext %13, i16 noundef zeroext 11) #4
  %.not.i43 = icmp eq i32 %86, 0
  br i1 %.not.i43, label %91, label %87

87:                                               ; preds = %83
  %88 = load ptr, ptr %84, align 8
  %89 = tail call ptr @index_getprocinfo(ptr noundef %88, i16 noundef signext %13, i16 noundef zeroext 11) #4
  %90 = load ptr, ptr %4, align 8
  tail call void @fmgr_info_copy(ptr noundef nonnull %75, ptr noundef %89, ptr noundef %90) #4
  br label %inclusion_get_procinfo.exit44

91:                                               ; preds = %83
  store i8 1, ptr %76, align 1
  br label %inclusion_get_procinfo.exit44

inclusion_get_procinfo.exit44:                    ; preds = %inclusion_get_procinfo.exit.thread, %79, %87, %91
  %.0.i42 = phi ptr [ null, %91 ], [ null, %inclusion_get_procinfo.exit.thread ], [ %75, %87 ], [ %75, %79 ]
  %92 = load ptr, ptr %20, align 8
  %93 = load i64, ptr %92, align 8
  %94 = load ptr, ptr %35, align 8
  %95 = load i64, ptr %94, align 8
  %96 = tail call i64 @FunctionCall2Coll(ptr noundef %.0.i42, i32 noundef %12, i64 noundef %93, i64 noundef %95) #4
  %97 = getelementptr inbounds nuw i8, ptr %19, i64 6
  %98 = load i8, ptr %97, align 2, !range !4, !noundef !5
  %99 = trunc nuw i8 %98 to i1
  br i1 %99, label %115, label %100

100:                                              ; preds = %inclusion_get_procinfo.exit44
  %101 = load ptr, ptr %20, align 8
  %102 = load i64, ptr %101, align 8
  %.not41 = icmp eq i64 %96, %102
  br i1 %.not41, label %115, label %103

103:                                              ; preds = %100
  %104 = inttoptr i64 %102 to ptr
  tail call void @pfree(ptr noundef %104) #4
  %105 = load ptr, ptr %35, align 8
  %106 = load i64, ptr %105, align 8
  %107 = icmp eq i64 %96, %106
  br i1 %107, label %108, label %115

108:                                              ; preds = %103
  %109 = load i8, ptr %97, align 2, !range !4, !noundef !5
  %110 = trunc nuw i8 %109 to i1
  %111 = getelementptr inbounds nuw i8, ptr %19, i64 4
  %112 = load i16, ptr %111, align 4
  %113 = sext i16 %112 to i32
  %114 = tail call i64 @datumCopy(i64 noundef %96, i1 noundef zeroext %110, i32 noundef %113) #4
  br label %115

115:                                              ; preds = %103, %108, %100, %inclusion_get_procinfo.exit44
  %.0 = phi i64 [ %96, %inclusion_get_procinfo.exit44 ], [ %114, %108 ], [ %96, %103 ], [ %96, %100 ]
  %116 = load ptr, ptr %20, align 8
  store i64 %.0, ptr %116, align 8
  br label %117

117:                                              ; preds = %30, %115, %70, %39
  ret i64 0
}